target datalayout = "e-m:e-p270:32:32-p271:32:32-p272:64:64-i64:64-i128:128-f80:128-n8:16:32:64-S128"
target triple = "x86_64-pc-linux-gnu"

%struct.termios = type { i32, i32, i32, i32, i8, [32 x i8], i32, i32 }

@.str.3 = private unnamed_addr constant [100 x i8] c"Linenoise key codes debugging mode.\0APress keys to see scan codes. Type 'quit' at any time to exit.\0A\00", align 1
@.str.4 = private unnamed_addr constant [5 x i8] c"quit\00", align 1
@.str.5 = private unnamed_addr constant [36 x i8] c"'%c' %02x (%d) (type quit to exit)\0A\00", align 1
@.str.6 = private unnamed_addr constant [2 x i8] c"\0D\00", align 1
@stdout = external global ptr, align 8
@orig_termios = internal global %struct.termios zeroinitializer, align 4
@rawmode = internal global i32 0, align 4

; Function Attrs: nounwind uwtable
define internal void @disableRawMode(i32 noundef %0) #0 {
  %2 = alloca i32, align 4
  store i32 %0, ptr %2, align 4, !tbaa !4
  %3 = load i32, ptr @rawmode, align 4, !tbaa !4
  %4 = icmp ne i32 %3, 0
  br i1 %4, label %5, label %10

5:                                                ; preds = %1
  %6 = load i32, ptr %2, align 4, !tbaa !4
  %7 = call i32 @tcsetattr(i32 noundef %6, i32 noundef 0, ptr noundef @orig_termios) #12
  %8 = icmp ne i32 %7, -1
  br i1 %8, label %9, label %10

9:                                                ; preds = %5
  store i32 0, ptr @rawmode, align 4, !tbaa !4
  br label %10

10:                                               ; preds = %9, %5, %1
  ret void
}

; Function Attrs: nounwind uwtable
define dso_local void @linenoisePrintKeyCodes() #0 {
  %1 = alloca [4 x i8], align 1
  %2 = alloca i32, align 4
  %3 = alloca i8, align 1
  %4 = alloca i32, align 4
  call void @llvm.lifetime.start.p0(i64 4, ptr %1) #12
  %5 = call i32 (ptr, ...) @printf(ptr noundef @.str.3)
  %6 = call i32 @enableRawMode(i32 noundef 0)
  %7 = icmp eq i32 %6, -1
  br i1 %7, label %8, label %9

8:                                                ; preds = %0
  store i32 1, ptr %2, align 4
  br label %57

9:                                                ; preds = %0
  %10 = getelementptr inbounds [4 x i8], ptr %1, i64 0, i64 0
  call void @llvm.memset.p0.i64(ptr align 1 %10, i8 32, i64 4, i1 false)
  br label %11

11:                                               ; preds = %55, %53, %9
  br label %12

12:                                               ; preds = %11
  call void @llvm.lifetime.start.p0(i64 1, ptr %3) #12
  call void @llvm.lifetime.start.p0(i64 4, ptr %4) #12
  %13 = call i64 @read(i32 noundef 0, ptr noundef %3, i64 noundef 1)
  %14 = trunc i64 %13 to i32
  store i32 %14, ptr %4, align 4, !tbaa !4
  %15 = load i32, ptr %4, align 4, !tbaa !4
  %16 = icmp sle i32 %15, 0
  br i1 %16, label %17, label %18

17:                                               ; preds = %12
  store i32 2, ptr %2, align 4
  br label %53

18:                                               ; preds = %12
  %19 = getelementptr inbounds [4 x i8], ptr %1, i64 0, i64 0
  %20 = getelementptr inbounds [4 x i8], ptr %1, i64 0, i64 0
  %21 = getelementptr inbounds i8, ptr %20, i64 1
  call void @llvm.memmove.p0.p0.i64(ptr align 1 %19, ptr align 1 %21, i64 3, i1 false)
  %22 = load i8, ptr %3, align 1, !tbaa !29
  %23 = getelementptr inbounds nuw [4 x i8], ptr %1, i64 0, i64 3
  store i8 %22, ptr %23, align 1, !tbaa !29
  %24 = getelementptr inbounds [4 x i8], ptr %1, i64 0, i64 0
  %25 = call i32 @memcmp(ptr noundef %24, ptr noundef @.str.4, i64 noundef 4) #13
  %26 = icmp eq i32 %25, 0
  br i1 %26, label %27, label %28

27:                                               ; preds = %18
  store i32 3, ptr %2, align 4
  br label %53

28:                                               ; preds = %18
  %29 = call ptr @__ctype_b_loc() #16
  %30 = load ptr, ptr %29, align 8, !tbaa !41
  %31 = load i8, ptr %3, align 1, !tbaa !29
  %32 = sext i8 %31 to i32
  %33 = sext i32 %32 to i64
  %34 = getelementptr inbounds i16, ptr %30, i64 %33
  %35 = load i16, ptr %34, align 2, !tbaa !43
  %36 = zext i16 %35 to i32
  %37 = and i32 %36, 16384
  %38 = icmp ne i32 %37, 0
  br i1 %38, label %39, label %42

39:                                               ; preds = %28
  %40 = load i8, ptr %3, align 1, !tbaa !29
  %41 = sext i8 %40 to i32
  br label %43

42:                                               ; preds = %28
  br label %43

43:                                               ; preds = %42, %39
  %44 = phi i32 [ %41, %39 ], [ 63, %42 ]
  %45 = load i8, ptr %3, align 1, !tbaa !29
  %46 = sext i8 %45 to i32
  %47 = load i8, ptr %3, align 1, !tbaa !29
  %48 = sext i8 %47 to i32
  %49 = call i32 (ptr, ...) @printf(ptr noundef @.str.5, i32 noundef %44, i32 noundef %46, i32 noundef %48)
  %50 = call i32 (ptr, ...) @printf(ptr noundef @.str.6)
  %51 = load ptr, ptr @stdout, align 8, !tbaa !45
  %52 = call i32 @fflush(ptr noundef %51)
  store i32 0, ptr %2, align 4
  br label %53

53:                                               ; preds = %43, %27, %17
  call void @llvm.lifetime.end.p0(i64 4, ptr %4) #12
  call void @llvm.lifetime.end.p0(i64 1, ptr %3) #12
  %54 = load i32, ptr %2, align 4
  switch i32 %54, label %60 [
    i32 0, label %55
    i32 2, label %11
    i32 3, label %56
  ]

55:                                               ; preds = %53
  br label %11

56:                                               ; preds = %53
  call void @disableRawMode(i32 noundef 0)
  store i32 0, ptr %2, align 4
  br label %57

57:                                               ; preds = %56, %8
  call void @llvm.lifetime.end.p0(i64 4, ptr %1) #12
  %58 = load i32, ptr %2, align 4
  switch i32 %58, label %60 [
    i32 0, label %59
    i32 1, label %59
  ]

59:                                               ; preds = %57, %57
  ret void

60:                                               ; preds = %57, %53
  unreachable
}