; Function Attrs: nounwind uwtable
define dso_local void @linenoisePrintKeyCodes() local_unnamed_addr #10 {
  %.sroa.0 = alloca i32, align 4
  %1 = alloca i8, align 1
  call void @llvm.lifetime.start.p0(i64 4, ptr nonnull %.sroa.0)
  %puts = tail call i32 @puts(ptr nonnull dereferenceable(1) @str)
  %2 = tail call fastcc i32 @enableRawMode()
  %3 = icmp eq i32 %2, -1
  br i1 %3, label %disableRawMode.exit, label %4

4:                                                ; preds = %0
  store i32 538976288, ptr %.sroa.0, align 4
  %.sroa.0.1..sroa_idx6 = getelementptr inbounds nuw i8, ptr %.sroa.0, i64 1
  %.sroa.0.3..sroa_idx7 = getelementptr inbounds nuw i8, ptr %.sroa.0, i64 3
  br label %5

5:                                                ; preds = %23, %4
  call void @llvm.lifetime.start.p0(i64 1, ptr nonnull %1) #24
  %6 = call i64 @read(i32 noundef 0, ptr noundef nonnull %1, i64 noundef 1) #24
  %7 = trunc i64 %6 to i32
  %8 = icmp slt i32 %7, 1
  br i1 %8, label %23, label %9

9:                                                ; preds = %5
  call void @llvm.memmove.p0.p0.i64(ptr noundef nonnull align 4 dereferenceable(3) %.sroa.0, ptr noundef nonnull align 1 dereferenceable(3) %.sroa.0.1..sroa_idx6, i64 3, i1 false)
  %10 = load i8, ptr %1, align 1, !tbaa !21
  store i8 %10, ptr %.sroa.0.3..sroa_idx7, align 1, !tbaa !21
  %.sroa.0.0..sroa.0.0.lhsv = load i32, ptr %.sroa.0, align 4
  %.not5 = icmp eq i32 %.sroa.0.0..sroa.0.0.lhsv, 1953068401
  br i1 %.not5, label %24, label %11

11:                                               ; preds = %9
  %12 = tail call ptr @__ctype_b_loc() #29
  %13 = load ptr, ptr %12, align 8, !tbaa !44
  %14 = sext i8 %10 to i32
  %15 = sext i8 %10 to i64
  %16 = getelementptr inbounds i16, ptr %13, i64 %15
  %17 = load i16, ptr %16, align 2, !tbaa !46
  %18 = and i16 %17, 16384
  %.not = icmp eq i16 %18, 0
  %19 = select i1 %.not, i32 63, i32 %14
  %20 = tail call i32 (ptr, ...) @printf(ptr noundef nonnull dereferenceable(1) @.str.5, i32 noundef %19, i32 noundef %14, i32 noundef %14)
  %putchar = tail call i32 @putchar(i32 13)
  %21 = load ptr, ptr @stdout, align 8, !tbaa !48
  %22 = tail call i32 @fflush(ptr noundef %21)
  br label %23

23:                                               ; preds = %5, %11
  call void @llvm.lifetime.end.p0(i64 1, ptr nonnull %1) #24
  br label %5

24:                                               ; preds = %9
  call void @llvm.lifetime.end.p0(i64 1, ptr nonnull %1) #24
  %.b.i = load i1, ptr @rawmode, align 4
  br i1 %.b.i, label %25, label %disableRawMode.exit

25:                                               ; preds = %24
  %26 = tail call i32 @tcsetattr(i32 noundef 0, i32 noundef 0, ptr noundef nonnull @orig_termios) #24
  %.not.i = icmp eq i32 %26, -1
  br i1 %.not.i, label %disableRawMode.exit, label %27

27:                                               ; preds = %25
  store i1 false, ptr @rawmode, align 4
  br label %disableRawMode.exit

disableRawMode.exit:                              ; preds = %27, %25, %24, %0
  call void @llvm.lifetime.end.p0(i64 4, ptr nonnull %.sroa.0)
  ret void
}